; Function Attrs: mustprogress nounwind uwtable
define hidden void @_ZNK14G1GCPhaseTimes11trace_phaseEP15WorkerDataArrayIdEbj(ptr nocapture noundef nonnull readnone align 8 dereferenceable(872) %0, ptr noundef %1, i1 noundef zeroext %2, i32 noundef %3) local_unnamed_addr #0 align 2 {
  %5 = alloca %class.LogStream, align 8
  %6 = load volatile ptr, ptr getelementptr inbounds (i8, ptr @_ZN16LogTagSetMappingILN6LogTag4typeE49ELS1_114ELS1_0ELS1_0ELS1_0ELS1_0EE7_tagsetE, i64 48), align 8
  %.not = icmp eq ptr %6, null
  br i1 %.not, label %11, label %7

7:                                                ; preds = %4
  call void @_ZN12outputStreamC2Eb(ptr noundef nonnull align 8 dereferenceable(56) %5, i1 noundef zeroext false) #18
  store ptr getelementptr inbounds inrange(-16, 40) (i8, ptr @_ZTV17LogStreamImplBase, i64 16), ptr %5, align 8
  %8 = getelementptr inbounds i8, ptr %5, i64 56
  call void @_ZN17LogStreamImplBase10LineBufferC1Ev(ptr noundef nonnull align 8 dereferenceable(88) %8) #18
  %9 = getelementptr inbounds i8, ptr %5, i64 144
  store i32 1, ptr %9, align 8
  %.sroa.21.0..sroa_idx.i.i = getelementptr inbounds i8, ptr %5, i64 152
  store ptr @_ZN16LogTagSetMappingILN6LogTag4typeE49ELS1_114ELS1_0ELS1_0ELS1_0ELS1_0EE7_tagsetE, ptr %.sroa.21.0..sroa_idx.i.i, align 8
  store ptr getelementptr inbounds inrange(-16, 40) (i8, ptr @_ZTV9LogStream, i64 16), ptr %5, align 8
  %10 = add i32 %3, 3
  call void @_ZNK14G1GCPhaseTimes9log_phaseEP15WorkerDataArrayIdEjP12outputStreamb(ptr nonnull align 8 poison, ptr noundef %1, i32 noundef %10, ptr noundef nonnull %5, i1 noundef zeroext %2)
  call void @_ZN13LogStreamImplI15LogTargetHandleED2Ev(ptr noundef nonnull align 8 dereferenceable(160) %5) #18
  br label %11

11:                                               ; preds = %7, %4
  ret void
}